#include <math.h>
#include <stdio.h>
#include <stdlib.h>
#include <string.h>

   int main(){
       int n,k,sz[1000],p;
       scanf("%d %d",&n,&k);
       for(int i=0;i<n;i++){
           scanf("%d",&sz[i]);
       }
       for(int y=0;y<n;y++){
           for(int m=1;m<n;m++){
           if(m!=y){p=sz[y]+sz[m];}
            if(p==k){break;}
           }
           if(p==k){printf("yes");break;}
           if(y==n-1){printf("no");}
       }
       return 0;
   }
