; ModuleID = 'source-C-CXX/2/2805.c'
source_filename = "source-C-CXX/2/2805.c"
target datalayout = "e-m:e-p270:32:32-p271:32:32-p272:64:64-i64:64-f80:128-n8:16:32:64-S128"
target triple = "x86_64-pc-linux-gnu"

@.str = private unnamed_addr constant [6 x i8] c"%d %d\00", align 1
@.str.1 = private unnamed_addr constant [3 x i8] c"%d\00", align 1
@.str.2 = private unnamed_addr constant [4 x i8] c"yes\00", align 1
@.str.3 = private unnamed_addr constant [3 x i8] c"no\00", align 1

; Function Attrs: nofree nounwind sspstrong uwtable
define dso_local i32 @main() local_unnamed_addr #0 {
  %1 = alloca i32, align 4
  %2 = alloca i32, align 4
  %3 = alloca [1000 x i32], align 16
  %4 = bitcast i32* %1 to i8*
  call void @llvm.lifetime.start.p0i8(i64 4, i8* nonnull %4) #3
  %5 = bitcast i32* %2 to i8*
  call void @llvm.lifetime.start.p0i8(i64 4, i8* nonnull %5) #3
  %6 = bitcast [1000 x i32]* %3 to i8*
  call void @llvm.lifetime.start.p0i8(i64 4000, i8* nonnull %6) #3
  %7 = call i32 (i8*, ...) @__isoc99_scanf(i8* getelementptr inbounds ([6 x i8], [6 x i8]* @.str, i64 0, i64 0), i32* nonnull %1, i32* nonnull %2)
  %8 = load i32, i32* %1, align 4, !tbaa !5
  %9 = icmp sgt i32 %8, 0
  br i1 %9, label %12, label %61

10:                                               ; preds = %12
  %11 = icmp sgt i32 %17, 0
  br i1 %11, label %20, label %61

12:                                               ; preds = %0, %12
  %13 = phi i64 [ %16, %12 ], [ 0, %0 ]
  %14 = getelementptr inbounds [1000 x i32], [1000 x i32]* %3, i64 0, i64 %13
  %15 = call i32 (i8*, ...) @__isoc99_scanf(i8* getelementptr inbounds ([3 x i8], [3 x i8]* @.str.1, i64 0, i64 0), i32* nonnull %14)
  %16 = add nuw nsw i64 %13, 1
  %17 = load i32, i32* %1, align 4, !tbaa !5
  %18 = sext i32 %17 to i64
  %19 = icmp slt i64 %16, %18
  br i1 %19, label %12, label %10, !llvm.loop !9

20:                                               ; preds = %10, %56
  %21 = phi i32 [ %57, %56 ], [ %17, %10 ]
  %22 = phi i64 [ %58, %56 ], [ 0, %10 ]
  %23 = phi i32 [ %45, %56 ], [ undef, %10 ]
  %24 = getelementptr inbounds [1000 x i32], [1000 x i32]* %3, i64 0, i64 %22
  %25 = load i32, i32* %2, align 4
  %26 = icmp sgt i32 %21, 1
  br i1 %26, label %27, label %44

27:                                               ; preds = %20
  %28 = zext i32 %21 to i64
  br label %29

29:                                               ; preds = %27, %38
  %30 = phi i64 [ 1, %27 ], [ %41, %38 ]
  %31 = phi i32 [ %23, %27 ], [ %39, %38 ]
  %32 = icmp eq i64 %30, %22
  br i1 %32, label %38, label %33

33:                                               ; preds = %29
  %34 = load i32, i32* %24, align 4, !tbaa !5
  %35 = getelementptr inbounds [1000 x i32], [1000 x i32]* %3, i64 0, i64 %30
  %36 = load i32, i32* %35, align 4, !tbaa !5
  %37 = add nsw i32 %36, %34
  br label %38

38:                                               ; preds = %33, %29
  %39 = phi i32 [ %37, %33 ], [ %31, %29 ]
  %40 = icmp ne i32 %39, %25
  %41 = add nuw nsw i64 %30, 1
  %42 = icmp ult i64 %41, %28
  %43 = select i1 %40, i1 %42, i1 false
  br i1 %43, label %29, label %44, !llvm.loop !11

44:                                               ; preds = %38, %20
  %45 = phi i32 [ %23, %20 ], [ %39, %38 ]
  %46 = icmp eq i32 %45, %25
  br i1 %46, label %47, label %49

47:                                               ; preds = %44
  %48 = call i32 (i8*, ...) @printf(i8* nonnull dereferenceable(1) getelementptr inbounds ([4 x i8], [4 x i8]* @.str.2, i64 0, i64 0))
  br label %61

49:                                               ; preds = %44
  %50 = add nsw i32 %21, -1
  %51 = zext i32 %50 to i64
  %52 = icmp eq i64 %22, %51
  br i1 %52, label %53, label %56

53:                                               ; preds = %49
  %54 = call i32 (i8*, ...) @printf(i8* nonnull dereferenceable(1) getelementptr inbounds ([3 x i8], [3 x i8]* @.str.3, i64 0, i64 0))
  %55 = load i32, i32* %1, align 4, !tbaa !5
  br label %56

56:                                               ; preds = %49, %53
  %57 = phi i32 [ %21, %49 ], [ %55, %53 ]
  %58 = add nuw nsw i64 %22, 1
  %59 = sext i32 %57 to i64
  %60 = icmp slt i64 %58, %59
  br i1 %60, label %20, label %61, !llvm.loop !12

61:                                               ; preds = %56, %0, %10, %47
  call void @llvm.lifetime.end.p0i8(i64 4000, i8* nonnull %6) #3
  call void @llvm.lifetime.end.p0i8(i64 4, i8* nonnull %5) #3
  call void @llvm.lifetime.end.p0i8(i64 4, i8* nonnull %4) #3
  ret i32 0
}

; Function Attrs: argmemonly mustprogress nofree nosync nounwind willreturn
declare void @llvm.lifetime.start.p0i8(i64 immarg, i8* nocapture) #1

; Function Attrs: nofree nounwind
declare noundef i32 @__isoc99_scanf(i8* nocapture noundef readonly, ...) local_unnamed_addr #2

; Function Attrs: argmemonly mustprogress nofree nosync nounwind willreturn
declare void @llvm.lifetime.end.p0i8(i64 immarg, i8* nocapture) #1

; Function Attrs: nofree nounwind
declare noundef i32 @printf(i8* nocapture noundef readonly, ...) local_unnamed_addr #2


!llvm.module.flags = !{!0, !1, !2, !3}
!llvm.ident = !{!4}

!0 = !{i32 1, !"wchar_size", i32 4}
!1 = !{i32 7, !"PIC Level", i32 2}
!2 = !{i32 7, !"PIE Level", i32 2}
!3 = !{i32 7, !"uwtable", i32 1}
!4 = !{!"clang version 13.0.0"}
!5 = !{!6, !6, i64 0}
!6 = !{!"int", !7, i64 0}
!7 = !{!"omnipotent char", !8, i64 0}
!8 = !{!"Simple C/C++ TBAA"}
!9 = distinct !{!9, !10}
!10 = !{!"llvm.loop.mustprogress"}
!11 = distinct !{!11, !10}
!12 = distinct !{!12, !10}
